; Function Attrs: nofree nounwind memory(read) uwtable
define noundef i32 @gvferror(ptr noundef readonly captures(none) %0) local_unnamed_addr #7 {
  %2 = load ptr, ptr %0, align 8, !tbaa !30
  %3 = getelementptr inbounds nuw i8, ptr %2, i64 208
  %4 = load ptr, ptr %3, align 8, !tbaa !68
  %.not = icmp eq ptr %4, null
  br i1 %.not, label %5, label %12

5:                                                ; preds = %1
  %6 = getelementptr inbounds nuw i8, ptr %0, i64 80
  %7 = load ptr, ptr %6, align 8, !tbaa !33
  %.not4 = icmp eq ptr %7, null
  br i1 %.not4, label %8, label %12

8:                                                ; preds = %5
  %9 = getelementptr inbounds nuw i8, ptr %0, i64 72
  %10 = load ptr, ptr %9, align 8, !tbaa !34
  %11 = tail call i32 @ferror(ptr noundef %10) #21
  br label %12

12:                                               ; preds = %1, %5, %8
  %.0 = phi i32 [ %11, %8 ], [ 0, %5 ], [ 0, %1 ]
  ret i32 %.0
}